target datalayout = "e-m:e-p270:32:32-p271:32:32-p272:64:64-i64:64-i128:128-f80:128-n8:16:32:64-S128"
target triple = "x86_64-pc-linux-gnu"

%struct.AVRational = type { i32, i32 }
%struct.SideDataMap = type { i32, i32 }
%struct.AVCodecContext = type { ptr, i32, i32, ptr, i32, i32, ptr, ptr, ptr, i64, i32, i32, ptr, i32, %struct.AVRational, %struct.AVRational, %struct.AVRational, i32, i32, i32, i32, i32, %struct.AVRational, i32, i32, i32, i32, i32, i32, i32, i32, i32, i32, i32, ptr, ptr, i32, float, float, float, float, float, float, float, float, float, i32, i32, i32, i32, i32, i32, i32, i32, i32, i32, i32, i32, ptr, ptr, ptr, i32, i32, i32, i32, i32, i32, i32, i32, i32, i32, %struct.AVChannelLayout, i32, i32, i32, i32, i32, i32, i32, i32, ptr, i32, i32, i32, float, float, i32, i32, i32, i32, i32, ptr, i64, i64, float, float, i32, i32, ptr, ptr, i32, i32, i32, i32, i32, ptr, ptr, ptr, ptr, i32, i32, [8 x i64], i32, i32, i32, i32, i32, i32, i32, ptr, ptr, i32, i32, i32, i32, i32, i32, i32, i32, i32, i32, ptr, ptr, i32, i32, ptr, ptr, ptr, ptr, i32, i32, i64, i32, i32, i64, ptr, i64, ptr, i32, ptr, i32 }
%struct.AVChannelLayout = type { i32, i32, %union.anon, ptr }
%union.anon = type { i64 }
%struct.AVCodecInternal = type { i32, i32, i32, ptr, ptr, ptr, ptr, ptr, ptr, ptr, i32, ptr, ptr, ptr, i32, i32, ptr, i32, ptr, ptr, i32, i32 }
%struct.FFCodec = type { %struct.AVCodec, i32, i32, ptr, ptr, ptr, ptr, %union.anon.0, ptr, ptr, ptr, ptr, ptr, ptr }
%struct.AVCodec = type { ptr, ptr, i32, i32, i32, i8, ptr, ptr, ptr, ptr, ptr, ptr, ptr, ptr }
%union.anon.0 = type { ptr }
%struct.AVFrame = type { [8 x ptr], [8 x i32], ptr, i32, i32, i32, i32, i32, %struct.AVRational, i64, i64, %struct.AVRational, i32, ptr, i32, i32, [8 x ptr], ptr, i32, ptr, i32, i32, i32, i32, i32, i32, i32, i64, ptr, i32, ptr, ptr, i64, i64, i64, i64, ptr, %struct.AVChannelLayout, i64 }
%struct.AVFrameSideData = type { i32, ptr, i64, ptr, ptr }

@ff_sd_global_map = external constant [0 x %struct.SideDataMap], align 4
@.str.17 = private unnamed_addr constant [29 x i8] c"ignoring invalid SAR: %u/%u\0A\00", align 1

; Function Attrs: alwaysinline nounwind uwtable
define internal ptr @ffcodec(ptr noundef %0) #3 {
  %2 = alloca ptr, align 8
  store ptr %0, ptr %2, align 8, !tbaa !71
  %3 = load ptr, ptr %2, align 8, !tbaa !71
  ret ptr %3
}

; Function Attrs: nounwind uwtable
define i32 @ff_decode_frame_props(ptr noundef %0, ptr noundef %1) #0 {
  %3 = alloca i32, align 4
  %4 = alloca ptr, align 8
  %5 = alloca ptr, align 8
  %6 = alloca i32, align 4
  %7 = alloca i32, align 4
  %8 = alloca i32, align 4
  %9 = alloca ptr, align 8
  %10 = alloca ptr, align 8
  %11 = alloca %struct.AVRational, align 4
  store ptr %0, ptr %4, align 8, !tbaa !4
  store ptr %1, ptr %5, align 8, !tbaa !51
  call void @llvm.lifetime.start.p0(i64 4, ptr %6) #11
  %12 = load ptr, ptr %5, align 8, !tbaa !51
  %13 = load ptr, ptr %4, align 8, !tbaa !4
  %14 = getelementptr inbounds nuw %struct.AVCodecContext, ptr %13, i32 0, i32 138
  %15 = load ptr, ptr %14, align 8, !tbaa !214
  %16 = load ptr, ptr %4, align 8, !tbaa !4
  %17 = getelementptr inbounds nuw %struct.AVCodecContext, ptr %16, i32 0, i32 139
  %18 = load i32, ptr %17, align 8, !tbaa !215
  %19 = call i32 @side_data_map(ptr noundef %12, ptr noundef %15, i32 noundef %18, ptr noundef @ff_sd_global_map)
  store i32 %19, ptr %6, align 4, !tbaa !41
  %20 = load i32, ptr %6, align 4, !tbaa !41
  %21 = icmp slt i32 %20, 0
  br i1 %21, label %22, label %24

22:                                               ; preds = %2
  %23 = load i32, ptr %6, align 4, !tbaa !41
  store i32 %23, ptr %3, align 4
  store i32 1, ptr %7, align 4
  br label %147

24:                                               ; preds = %2
  call void @llvm.lifetime.start.p0(i64 4, ptr %8) #11
  store i32 0, ptr %8, align 4, !tbaa !41
  br label %25

25:                                               ; preds = %62, %24
  %26 = load i32, ptr %8, align 4, !tbaa !41
  %27 = load ptr, ptr %4, align 8, !tbaa !4
  %28 = getelementptr inbounds nuw %struct.AVCodecContext, ptr %27, i32 0, i32 150
  %29 = load i32, ptr %28, align 8, !tbaa !235
  %30 = icmp slt i32 %26, %29
  br i1 %30, label %32, label %31

31:                                               ; preds = %25
  store i32 2, ptr %7, align 4
  br label %65

32:                                               ; preds = %25
  call void @llvm.lifetime.start.p0(i64 8, ptr %9) #11
  %33 = load ptr, ptr %4, align 8, !tbaa !4
  %34 = getelementptr inbounds nuw %struct.AVCodecContext, ptr %33, i32 0, i32 149
  %35 = load ptr, ptr %34, align 8, !tbaa !236
  %36 = load i32, ptr %8, align 4, !tbaa !41
  %37 = sext i32 %36 to i64
  %38 = getelementptr inbounds ptr, ptr %35, i64 %37
  %39 = load ptr, ptr %38, align 8, !tbaa !74
  store ptr %39, ptr %9, align 8, !tbaa !74
  %40 = load ptr, ptr %5, align 8, !tbaa !51
  %41 = load ptr, ptr %9, align 8, !tbaa !74
  %42 = getelementptr inbounds nuw %struct.AVFrameSideData, ptr %41, i32 0, i32 0
  %43 = load i32, ptr %42, align 8, !tbaa !237
  %44 = call ptr @av_frame_get_side_data(ptr noundef %40, i32 noundef %43)
  %45 = icmp ne ptr %44, null
  br i1 %45, label %46, label %47

46:                                               ; preds = %32
  store i32 4, ptr %7, align 4
  br label %59

47:                                               ; preds = %32
  %48 = load ptr, ptr %5, align 8, !tbaa !51
  %49 = getelementptr inbounds nuw %struct.AVFrame, ptr %48, i32 0, i32 19
  %50 = load ptr, ptr %5, align 8, !tbaa !51
  %51 = getelementptr inbounds nuw %struct.AVFrame, ptr %50, i32 0, i32 20
  %52 = load ptr, ptr %9, align 8, !tbaa !74
  %53 = call i32 @av_frame_side_data_clone(ptr noundef %49, ptr noundef %51, ptr noundef %52, i32 noundef 0)
  store i32 %53, ptr %6, align 4, !tbaa !41
  %54 = load i32, ptr %6, align 4, !tbaa !41
  %55 = icmp slt i32 %54, 0
  br i1 %55, label %56, label %58

56:                                               ; preds = %47
  %57 = load i32, ptr %6, align 4, !tbaa !41
  store i32 %57, ptr %3, align 4
  store i32 1, ptr %7, align 4
  br label %59

58:                                               ; preds = %47
  store i32 0, ptr %7, align 4
  br label %59

59:                                               ; preds = %58, %56, %46
  call void @llvm.lifetime.end.p0(i64 8, ptr %9) #11
  %60 = load i32, ptr %7, align 4
  switch i32 %60, label %65 [
    i32 0, label %61
    i32 4, label %62
  ]

61:                                               ; preds = %59
  br label %62

62:                                               ; preds = %61, %59
  %63 = load i32, ptr %8, align 4, !tbaa !41
  %64 = add nsw i32 %63, 1
  store i32 %64, ptr %8, align 4, !tbaa !41
  br label %25, !llvm.loop !238

65:                                               ; preds = %59, %31
  call void @llvm.lifetime.end.p0(i64 4, ptr %8) #11
  %66 = load i32, ptr %7, align 4
  switch i32 %66, label %147 [
    i32 2, label %67
  ]

67:                                               ; preds = %65
  %68 = load ptr, ptr %4, align 8, !tbaa !4
  %69 = getelementptr inbounds nuw %struct.AVCodecContext, ptr %68, i32 0, i32 3
  %70 = load ptr, ptr %69, align 8, !tbaa !50
  %71 = call ptr @ffcodec(ptr noundef %70)
  %72 = getelementptr inbounds nuw %struct.FFCodec, ptr %71, i32 0, i32 1
  %73 = load i32, ptr %72, align 8
  %74 = and i32 %73, 67108863
  %75 = and i32 %74, 256
  %76 = icmp ne i32 %75, 0
  br i1 %76, label %95, label %77

77:                                               ; preds = %67
  call void @llvm.lifetime.start.p0(i64 8, ptr %10) #11
  %78 = load ptr, ptr %4, align 8, !tbaa !4
  %79 = getelementptr inbounds nuw %struct.AVCodecContext, ptr %78, i32 0, i32 7
  %80 = load ptr, ptr %79, align 8, !tbaa !11
  %81 = getelementptr inbounds nuw %struct.AVCodecInternal, ptr %80, i32 0, i32 8
  %82 = load ptr, ptr %81, align 8, !tbaa !239
  store ptr %82, ptr %10, align 8, !tbaa !9
  %83 = load ptr, ptr %4, align 8, !tbaa !4
  %84 = load ptr, ptr %5, align 8, !tbaa !51
  %85 = load ptr, ptr %10, align 8, !tbaa !9
  %86 = call i32 @ff_decode_frame_props_from_pkt(ptr noundef %83, ptr noundef %84, ptr noundef %85)
  store i32 %86, ptr %6, align 4, !tbaa !41
  %87 = load i32, ptr %6, align 4, !tbaa !41
  %88 = icmp slt i32 %87, 0
  br i1 %88, label %89, label %91

89:                                               ; preds = %77
  %90 = load i32, ptr %6, align 4, !tbaa !41
  store i32 %90, ptr %3, align 4
  store i32 1, ptr %7, align 4
  br label %92

91:                                               ; preds = %77
  store i32 0, ptr %7, align 4
  br label %92

92:                                               ; preds = %91, %89
  call void @llvm.lifetime.end.p0(i64 8, ptr %10) #11
  %93 = load i32, ptr %7, align 4
  switch i32 %93, label %147 [
    i32 0, label %94
  ]

94:                                               ; preds = %92
  br label %95

95:                                               ; preds = %94, %67
  %96 = load ptr, ptr %4, align 8, !tbaa !4
  %97 = load ptr, ptr %5, align 8, !tbaa !51
  %98 = call i32 @fill_frame_props(ptr noundef %96, ptr noundef %97)
  store i32 %98, ptr %6, align 4, !tbaa !41
  %99 = load i32, ptr %6, align 4, !tbaa !41
  %100 = icmp slt i32 %99, 0
  br i1 %100, label %101, label %103

101:                                              ; preds = %95
  %102 = load i32, ptr %6, align 4, !tbaa !41
  store i32 %102, ptr %3, align 4
  store i32 1, ptr %7, align 4
  br label %147

103:                                              ; preds = %95
  %104 = load ptr, ptr %4, align 8, !tbaa !4
  %105 = getelementptr inbounds nuw %struct.AVCodecContext, ptr %104, i32 0, i32 3
  %106 = load ptr, ptr %105, align 8, !tbaa !50
  %107 = getelementptr inbounds nuw %struct.AVCodec, ptr %106, i32 0, i32 2
  %108 = load i32, ptr %107, align 8, !tbaa !64
  switch i32 %108, label %146 [
    i32 0, label %109
  ]

109:                                              ; preds = %103
  %110 = load ptr, ptr %5, align 8, !tbaa !51
  %111 = getelementptr inbounds nuw %struct.AVFrame, ptr %110, i32 0, i32 3
  %112 = load i32, ptr %111, align 8, !tbaa !99
  %113 = icmp ne i32 %112, 0
  br i1 %113, label %114, label %145

114:                                              ; preds = %109
  %115 = load ptr, ptr %5, align 8, !tbaa !51
  %116 = getelementptr inbounds nuw %struct.AVFrame, ptr %115, i32 0, i32 4
  %117 = load i32, ptr %116, align 4, !tbaa !101
  %118 = icmp ne i32 %117, 0
  br i1 %118, label %119, label %145

119:                                              ; preds = %114
  %120 = load ptr, ptr %5, align 8, !tbaa !51
  %121 = getelementptr inbounds nuw %struct.AVFrame, ptr %120, i32 0, i32 3
  %122 = load i32, ptr %121, align 8, !tbaa !99
  %123 = load ptr, ptr %5, align 8, !tbaa !51
  %124 = getelementptr inbounds nuw %struct.AVFrame, ptr %123, i32 0, i32 4
  %125 = load i32, ptr %124, align 4, !tbaa !101
  %126 = load ptr, ptr %5, align 8, !tbaa !51
  %127 = getelementptr inbounds nuw %struct.AVFrame, ptr %126, i32 0, i32 8
  %128 = load i64, ptr %127, align 4
  %129 = call i32 @av_image_check_sar(i32 noundef %122, i32 noundef %125, i64 %128)
  %130 = icmp slt i32 %129, 0
  br i1 %130, label %131, label %145

131:                                              ; preds = %119
  %132 = load ptr, ptr %4, align 8, !tbaa !4
  %133 = load ptr, ptr %5, align 8, !tbaa !51
  %134 = getelementptr inbounds nuw %struct.AVFrame, ptr %133, i32 0, i32 8
  %135 = getelementptr inbounds nuw %struct.AVRational, ptr %134, i32 0, i32 0
  %136 = load i32, ptr %135, align 4, !tbaa !240
  %137 = load ptr, ptr %5, align 8, !tbaa !51
  %138 = getelementptr inbounds nuw %struct.AVFrame, ptr %137, i32 0, i32 8
  %139 = getelementptr inbounds nuw %struct.AVRational, ptr %138, i32 0, i32 1
  %140 = load i32, ptr %139, align 4, !tbaa !241
  call void (ptr, i32, ptr, ...) @av_log(ptr noundef %132, i32 noundef 24, ptr noundef @.str.17, i32 noundef %136, i32 noundef %140)
  %141 = load ptr, ptr %5, align 8, !tbaa !51
  %142 = getelementptr inbounds nuw %struct.AVFrame, ptr %141, i32 0, i32 8
  %143 = getelementptr inbounds nuw %struct.AVRational, ptr %11, i32 0, i32 0
  store i32 0, ptr %143, align 4, !tbaa !87
  %144 = getelementptr inbounds nuw %struct.AVRational, ptr %11, i32 0, i32 1
  store i32 1, ptr %144, align 4, !tbaa !88
  call void @llvm.memcpy.p0.p0.i64(ptr align 4 %142, ptr align 4 %11, i64 8, i1 false), !tbaa.struct !242
  br label %145

145:                                              ; preds = %131, %119, %114, %109
  br label %146

146:                                              ; preds = %103, %145
  store i32 0, ptr %3, align 4
  store i32 1, ptr %7, align 4
  br label %147

147:                                              ; preds = %146, %101, %92, %65, %22
  call void @llvm.lifetime.end.p0(i64 4, ptr %6) #11
  %148 = load i32, ptr %3, align 4
  ret i32 %148
}