; Function Attrs: nounwind uwtable
define range(i32 -2147483648, 1) i32 @ff_decode_frame_props(ptr noundef %0, ptr noundef %1) local_unnamed_addr #0 {
  %3 = getelementptr inbounds nuw i8, ptr %0, i64 776
  %4 = load ptr, ptr %3, align 8, !tbaa !186
  %5 = getelementptr inbounds nuw i8, ptr %0, i64 784
  %6 = load i32, ptr %5, align 8, !tbaa !187
  %7 = tail call fastcc i32 @side_data_map(ptr noundef %1, ptr noundef %4, i32 noundef %6, ptr noundef nonnull @ff_sd_global_map)
  %8 = icmp slt i32 %7, 0
  br i1 %8, label %.thread60, label %.preheader

.preheader:                                       ; preds = %2
  %9 = getelementptr inbounds nuw i8, ptr %0, i64 856
  %10 = load i32, ptr %9, align 8, !tbaa !210
  %.not5362 = icmp sgt i32 %10, 0
  br i1 %.not5362, label %.lr.ph, label %._crit_edge

.lr.ph:                                           ; preds = %.preheader
  %11 = getelementptr inbounds nuw i8, ptr %0, i64 848
  %12 = getelementptr inbounds nuw i8, ptr %1, i64 264
  %13 = getelementptr inbounds nuw i8, ptr %1, i64 272
  br label %14

14:                                               ; preds = %.lr.ph, %23
  %indvars.iv = phi i64 [ 0, %.lr.ph ], [ %indvars.iv.next, %23 ]
  %15 = load ptr, ptr %11, align 8, !tbaa !211
  %16 = getelementptr inbounds nuw ptr, ptr %15, i64 %indvars.iv
  %17 = load ptr, ptr %16, align 8, !tbaa !212
  %18 = load i32, ptr %17, align 8, !tbaa !214
  %19 = tail call ptr @av_frame_get_side_data(ptr noundef %1, i32 noundef %18) #10
  %.not = icmp eq ptr %19, null
  br i1 %.not, label %20, label %23

20:                                               ; preds = %14
  %21 = tail call i32 @av_frame_side_data_clone(ptr noundef nonnull %12, ptr noundef nonnull %13, ptr noundef nonnull %17, i32 noundef 0) #10
  %22 = icmp slt i32 %21, 0
  br i1 %22, label %.thread60, label %23

23:                                               ; preds = %14, %20
  %indvars.iv.next = add nuw nsw i64 %indvars.iv, 1
  %24 = load i32, ptr %9, align 8, !tbaa !210
  %25 = sext i32 %24 to i64
  %.not53 = icmp slt i64 %indvars.iv.next, %25
  br i1 %.not53, label %14, label %._crit_edge, !llvm.loop !215

._crit_edge:                                      ; preds = %23, %.preheader
  %26 = getelementptr inbounds nuw i8, ptr %0, i64 16
  %27 = load ptr, ptr %26, align 8, !tbaa !36
  %28 = getelementptr inbounds nuw i8, ptr %27, i64 96
  %29 = load i32, ptr %28, align 8
  %30 = and i32 %29, 256
  %.not54 = icmp eq i32 %30, 0
  br i1 %.not54, label %31, label %38

31:                                               ; preds = %._crit_edge
  %32 = getelementptr inbounds nuw i8, ptr %0, i64 40
  %33 = load ptr, ptr %32, align 8, !tbaa !4
  %34 = getelementptr inbounds nuw i8, ptr %33, i64 56
  %35 = load ptr, ptr %34, align 8, !tbaa !37
  %36 = tail call i32 @ff_decode_frame_props_from_pkt(ptr noundef nonnull %0, ptr noundef %1, ptr noundef %35)
  %37 = icmp sgt i32 %36, -1
  br i1 %37, label %38, label %.thread60

38:                                               ; preds = %31, %._crit_edge
  %39 = tail call fastcc i32 @fill_frame_props(ptr noundef nonnull %0, ptr noundef %1)
  %40 = icmp slt i32 %39, 0
  br i1 %40, label %.thread60, label %41

41:                                               ; preds = %38
  %42 = load ptr, ptr %26, align 8, !tbaa !36
  %43 = getelementptr inbounds nuw i8, ptr %42, i64 16
  %44 = load i32, ptr %43, align 8, !tbaa !65
  %cond2 = icmp eq i32 %44, 0
  br i1 %cond2, label %45, label %.thread60

45:                                               ; preds = %41
  %46 = getelementptr inbounds nuw i8, ptr %1, i64 104
  %47 = load i32, ptr %46, align 8, !tbaa !93
  %.not55 = icmp eq i32 %47, 0
  br i1 %.not55, label %.thread60, label %48

48:                                               ; preds = %45
  %49 = getelementptr inbounds nuw i8, ptr %1, i64 108
  %50 = load i32, ptr %49, align 4, !tbaa !94
  %.not56 = icmp eq i32 %50, 0
  br i1 %.not56, label %.thread60, label %51

51:                                               ; preds = %48
  %52 = getelementptr inbounds nuw i8, ptr %1, i64 124
  %53 = load i64, ptr %52, align 4
  %54 = tail call i32 @av_image_check_sar(i32 noundef %47, i32 noundef %50, i64 %53) #10
  %55 = icmp slt i32 %54, 0
  br i1 %55, label %56, label %.thread60

56:                                               ; preds = %51
  %57 = load i32, ptr %52, align 4, !tbaa !216
  %58 = getelementptr inbounds nuw i8, ptr %1, i64 128
  %59 = load i32, ptr %58, align 4, !tbaa !217
  tail call void (ptr, i32, ptr, ...) @av_log(ptr noundef nonnull %0, i32 noundef 24, ptr noundef nonnull @.str.17, i32 noundef %57, i32 noundef %59) #10
  store i32 0, ptr %52, align 4, !tbaa !69
  store i32 1, ptr %58, align 4, !tbaa !69
  br label %.thread60

.thread60:                                        ; preds = %20, %41, %56, %51, %48, %45, %38, %2, %31
  %.0 = phi i32 [ %36, %31 ], [ %7, %2 ], [ %39, %38 ], [ 0, %45 ], [ 0, %48 ], [ 0, %51 ], [ 0, %56 ], [ 0, %41 ], [ %21, %20 ]
  ret i32 %.0
}